target datalayout = "e-m:e-p270:32:32-p271:32:32-p272:64:64-i64:64-i128:128-f80:128-n8:16:32:64-S128"
target triple = "x86_64-pc-linux-gnu"

%struct.Font = type { i32, i32, i32, %struct.Texture, ptr, ptr }
%struct.Texture = type { i32, i32, i32, i32, i32 }
%struct.Color = type { i8, i8, i8, i8 }
%struct.Vector2 = type { float, float }

@defaultFont = internal global %struct.Font zeroinitializer, align 8

; Function Attrs: nounwind uwtable
define void @GetFontDefault(ptr dead_on_unwind noalias writable sret(%struct.Font) align 8 %0) #0 {
  call void @llvm.memcpy.p0.p0.i64(ptr align 8 %0, ptr align 8 @defaultFont, i64 48, i1 false)
  ret void
}

; Function Attrs: nounwind uwtable
define void @DrawText(ptr noundef %0, i32 noundef %1, i32 noundef %2, i32 noundef %3, i32 %4) #3 {
  %6 = alloca %struct.Color, align 1
  %7 = alloca ptr, align 8
  %8 = alloca i32, align 4
  %9 = alloca i32, align 4
  %10 = alloca i32, align 4
  %11 = alloca %struct.Font, align 8
  %12 = alloca %struct.Vector2, align 4
  %13 = alloca i32, align 4
  %14 = alloca i32, align 4
  %15 = alloca %struct.Font, align 8
  store i32 %4, ptr %6, align 1
  store ptr %0, ptr %7, align 8
  store i32 %1, ptr %8, align 4
  store i32 %2, ptr %9, align 4
  store i32 %3, ptr %10, align 4
  call void @GetFontDefault(ptr dead_on_unwind writable sret(%struct.Font) align 8 %11)
  %16 = getelementptr inbounds nuw %struct.Font, ptr %11, i32 0, i32 3
  %17 = getelementptr inbounds nuw %struct.Texture, ptr %16, i32 0, i32 0
  %18 = load i32, ptr %17, align 4
  %19 = icmp ne i32 %18, 0
  br i1 %19, label %20, label %43

20:                                               ; preds = %5
  call void @llvm.lifetime.start.p0(i64 8, ptr %12) #13
  %21 = getelementptr inbounds nuw %struct.Vector2, ptr %12, i32 0, i32 0
  %22 = load i32, ptr %8, align 4
  %23 = sitofp i32 %22 to float
  store float %23, ptr %21, align 4
  %24 = getelementptr inbounds nuw %struct.Vector2, ptr %12, i32 0, i32 1
  %25 = load i32, ptr %9, align 4
  %26 = sitofp i32 %25 to float
  store float %26, ptr %24, align 4
  call void @llvm.lifetime.start.p0(i64 4, ptr %13) #13
  store i32 10, ptr %13, align 4
  %27 = load i32, ptr %10, align 4
  %28 = load i32, ptr %13, align 4
  %29 = icmp slt i32 %27, %28
  br i1 %29, label %30, label %32

30:                                               ; preds = %20
  %31 = load i32, ptr %13, align 4
  store i32 %31, ptr %10, align 4
  br label %32

32:                                               ; preds = %30, %20
  call void @llvm.lifetime.start.p0(i64 4, ptr %14) #13
  %33 = load i32, ptr %10, align 4
  %34 = load i32, ptr %13, align 4
  %35 = sdiv i32 %33, %34
  store i32 %35, ptr %14, align 4
  call void @GetFontDefault(ptr dead_on_unwind writable sret(%struct.Font) align 8 %15)
  %36 = load ptr, ptr %7, align 8
  %37 = load i32, ptr %10, align 4
  %38 = sitofp i32 %37 to float
  %39 = load i32, ptr %14, align 4
  %40 = sitofp i32 %39 to float
  %41 = load <2 x float>, ptr %12, align 4
  %42 = load i32, ptr %6, align 1
  call void @DrawTextEx(ptr noundef byval(%struct.Font) align 8 %15, ptr noundef %36, <2 x float> %41, float noundef %38, float noundef %40, i32 %42)
  call void @llvm.lifetime.end.p0(i64 4, ptr %14) #13
  call void @llvm.lifetime.end.p0(i64 4, ptr %13) #13
  call void @llvm.lifetime.end.p0(i64 8, ptr %12) #13
  br label %43

43:                                               ; preds = %32, %5
  ret void
}