; Function Attrs: nounwind uwtable
define void @DrawText(ptr noundef captures(address_is_null) %0, i32 noundef %1, i32 noundef %2, i32 noundef %3, i32 %4) local_unnamed_addr #6 {
  %.sroa.1.0.copyload = load i32, ptr getelementptr inbounds nuw (i8, ptr @defaultFont, i64 12), align 4
  %.not = icmp eq i32 %.sroa.1.0.copyload, 0
  br i1 %.not, label %12, label %6

6:                                                ; preds = %5
  %7 = sitofp i32 %1 to float
  %.sroa.0.0.vec.insert = insertelement <2 x float> poison, float %7, i64 0
  %8 = sitofp i32 %2 to float
  %.sroa.0.4.vec.insert = insertelement <2 x float> %.sroa.0.0.vec.insert, float %8, i64 1
  %spec.select = tail call i32 @llvm.smax.i32(i32 %3, i32 10)
  %9 = udiv i32 %spec.select, 10
  %10 = uitofp nneg i32 %spec.select to float
  %11 = uitofp nneg i32 %9 to float
  tail call void @DrawTextEx(ptr noundef nonnull byval(%struct.Font) align 8 @defaultFont, ptr noundef %0, <2 x float> %.sroa.0.4.vec.insert, float noundef %10, float noundef %11, i32 %4)
  br label %12

12:                                               ; preds = %6, %5
  ret void
}